target datalayout = "e-m:e-p270:32:32-p271:32:32-p272:64:64-i64:64-i128:128-f80:128-n8:16:32:64-S128"
target triple = "x86_64-pc-linux-gnu"

%"class.pstd::span" = type { ptr, i64 }
%"struct.pbrt::DisplayItem::ImageChannelBuffer" = type { %"class.std::vector.9", i32, i32, %"class.std::vector.14", i32, i32 }
%"class.std::vector.9" = type { %"struct.std::_Vector_base.10" }
%"struct.std::_Vector_base.10" = type { %"struct.std::_Vector_base<unsigned char, std::allocator<unsigned char>>::_Vector_impl" }
%"struct.std::_Vector_base<unsigned char, std::allocator<unsigned char>>::_Vector_impl" = type { %"struct.std::_Vector_base<unsigned char, std::allocator<unsigned char>>::_Vector_impl_data" }
%"struct.std::_Vector_base<unsigned char, std::allocator<unsigned char>>::_Vector_impl_data" = type { ptr, ptr, ptr }
%"class.std::vector.14" = type { %"struct.std::_Vector_base.15" }
%"struct.std::_Vector_base.15" = type { %"struct.std::_Vector_base<unsigned long, std::allocator<unsigned long>>::_Vector_impl" }
%"struct.std::_Vector_base<unsigned long, std::allocator<unsigned long>>::_Vector_impl" = type { %"struct.std::_Vector_base<unsigned long, std::allocator<unsigned long>>::_Vector_impl_data" }
%"struct.std::_Vector_base<unsigned long, std::allocator<unsigned long>>::_Vector_impl_data" = type { ptr, ptr, ptr }
%"class.pstd::span.19" = type { ptr, i64 }

; Function Attrs: mustprogress nounwind uwtable
define linkonce_odr dso_local void @_ZN4pstd4spanIKhEC2EPS1_m(ptr noundef nonnull align 8 dereferenceable(16) %0, ptr noundef %1, i64 noundef %2) unnamed_addr #3 comdat align 2 {
  %4 = alloca ptr, align 8
  %5 = alloca ptr, align 8
  %6 = alloca i64, align 8
  store ptr %0, ptr %4, align 8, !tbaa !63
  store ptr %1, ptr %5, align 8, !tbaa !30
  store i64 %2, ptr %6, align 8, !tbaa !25
  %7 = load ptr, ptr %4, align 8
  %8 = getelementptr inbounds nuw %"class.pstd::span", ptr %7, i32 0, i32 0
  %9 = load ptr, ptr %5, align 8, !tbaa !30
  store ptr %9, ptr %8, align 8, !tbaa !65
  %10 = getelementptr inbounds nuw %"class.pstd::span", ptr %7, i32 0, i32 1
  %11 = load i64, ptr %6, align 8, !tbaa !25
  store i64 %11, ptr %10, align 8, !tbaa !67
  ret void
}

; Function Attrs: mustprogress nounwind uwtable
define linkonce_odr dso_local noundef i64 @_ZNK4pstd4spanIhE4sizeEv(ptr noundef nonnull align 8 dereferenceable(16) %0) #3 comdat align 2 {
  %2 = alloca ptr, align 8
  store ptr %0, ptr %2, align 8, !tbaa !130
  %3 = load ptr, ptr %2, align 8
  %4 = getelementptr inbounds nuw %"class.pstd::span.19", ptr %3, i32 0, i32 1
  %5 = load i64, ptr %4, align 8, !tbaa !224
  ret i64 %5
}

; Function Attrs: mustprogress nounwind uwtable
define linkonce_odr dso_local noundef ptr @_ZNK4pstd4spanIhE4dataEv(ptr noundef nonnull align 8 dereferenceable(16) %0) #3 comdat align 2 {
  %2 = alloca ptr, align 8
  store ptr %0, ptr %2, align 8, !tbaa !130
  %3 = load ptr, ptr %2, align 8
  %4 = getelementptr inbounds nuw %"class.pstd::span.19", ptr %3, i32 0, i32 0
  %5 = load ptr, ptr %4, align 8, !tbaa !222
  ret ptr %5
}

; Function Attrs: noinline noreturn nounwind uwtable
define linkonce_odr hidden void @__clang_call_terminate(ptr noundef %0) #10 comdat {
  %2 = call ptr @__cxa_begin_catch(ptr %0) #13
  call void @_ZSt9terminatev() #22
  unreachable
}

; Function Attrs: mustprogress nounwind uwtable
define linkonce_odr dso_local void @_ZN4pstd4spanIhEC2EPhm(ptr noundef nonnull align 8 dereferenceable(16) %0, ptr noundef %1, i64 noundef %2) unnamed_addr #3 comdat align 2 {
  %4 = alloca ptr, align 8
  %5 = alloca ptr, align 8
  %6 = alloca i64, align 8
  store ptr %0, ptr %4, align 8, !tbaa !130
  store ptr %1, ptr %5, align 8, !tbaa !30
  store i64 %2, ptr %6, align 8, !tbaa !25
  %7 = load ptr, ptr %4, align 8
  %8 = getelementptr inbounds nuw %"class.pstd::span.19", ptr %7, i32 0, i32 0
  %9 = load ptr, ptr %5, align 8, !tbaa !30
  store ptr %9, ptr %8, align 8, !tbaa !222
  %10 = getelementptr inbounds nuw %"class.pstd::span.19", ptr %7, i32 0, i32 1
  %11 = load i64, ptr %6, align 8, !tbaa !25
  store i64 %11, ptr %10, align 8, !tbaa !224
  ret void
}

; Function Attrs: inlinehint mustprogress nounwind uwtable
define linkonce_odr dso_local noundef i64 @_ZN4pbrt13MurmurHash64AEPKhmm(ptr noundef %0, i64 noundef %1, i64 noundef %2) #12 comdat {
  %4 = alloca ptr, align 8
  %5 = alloca i64, align 8
  %6 = alloca i64, align 8
  %7 = alloca i64, align 8
  %8 = alloca i32, align 4
  %9 = alloca i64, align 8
  %10 = alloca ptr, align 8
  %11 = alloca i64, align 8
  store ptr %0, ptr %4, align 8, !tbaa !30
  store i64 %1, ptr %5, align 8, !tbaa !25
  store i64 %2, ptr %6, align 8, !tbaa !25
  call void @llvm.lifetime.start.p0(i64 8, ptr %7) #13
  store i64 -4132994306676758123, ptr %7, align 8, !tbaa !25
  call void @llvm.lifetime.start.p0(i64 4, ptr %8) #13
  store i32 47, ptr %8, align 4, !tbaa !28
  call void @llvm.lifetime.start.p0(i64 8, ptr %9) #13
  %12 = load i64, ptr %6, align 8, !tbaa !25
  %13 = load i64, ptr %5, align 8, !tbaa !25
  %14 = mul i64 %13, -4132994306676758123
  %15 = xor i64 %12, %14
  store i64 %15, ptr %9, align 8, !tbaa !25
  call void @llvm.lifetime.start.p0(i64 8, ptr %10) #13
  %16 = load ptr, ptr %4, align 8, !tbaa !30
  %17 = load i64, ptr %5, align 8, !tbaa !25
  %18 = udiv i64 %17, 8
  %19 = mul i64 8, %18
  %20 = getelementptr inbounds nuw i8, ptr %16, i64 %19
  store ptr %20, ptr %10, align 8, !tbaa !30
  br label %21

21:                                               ; preds = %25, %3
  %22 = load ptr, ptr %4, align 8, !tbaa !30
  %23 = load ptr, ptr %10, align 8, !tbaa !30
  %24 = icmp ne ptr %22, %23
  br i1 %24, label %25, label %42

25:                                               ; preds = %21
  call void @llvm.lifetime.start.p0(i64 8, ptr %11) #13
  %26 = load ptr, ptr %4, align 8, !tbaa !30
  call void @llvm.memcpy.p0.p0.i64(ptr align 8 %11, ptr align 1 %26, i64 8, i1 false)
  %27 = load ptr, ptr %4, align 8, !tbaa !30
  %28 = getelementptr inbounds i8, ptr %27, i64 8
  store ptr %28, ptr %4, align 8, !tbaa !30
  %29 = load i64, ptr %11, align 8, !tbaa !25
  %30 = mul i64 %29, -4132994306676758123
  store i64 %30, ptr %11, align 8, !tbaa !25
  %31 = load i64, ptr %11, align 8, !tbaa !25
  %32 = lshr i64 %31, 47
  %33 = load i64, ptr %11, align 8, !tbaa !25
  %34 = xor i64 %33, %32
  store i64 %34, ptr %11, align 8, !tbaa !25
  %35 = load i64, ptr %11, align 8, !tbaa !25
  %36 = mul i64 %35, -4132994306676758123
  store i64 %36, ptr %11, align 8, !tbaa !25
  %37 = load i64, ptr %11, align 8, !tbaa !25
  %38 = load i64, ptr %9, align 8, !tbaa !25
  %39 = xor i64 %38, %37
  store i64 %39, ptr %9, align 8, !tbaa !25
  %40 = load i64, ptr %9, align 8, !tbaa !25
  %41 = mul i64 %40, -4132994306676758123
  store i64 %41, ptr %9, align 8, !tbaa !25
  call void @llvm.lifetime.end.p0(i64 8, ptr %11) #13
  br label %21, !llvm.loop !481

42:                                               ; preds = %21
  %43 = load i64, ptr %5, align 8, !tbaa !25
  %44 = and i64 %43, 7
  switch i64 %44, label %102 [
    i64 7, label %45
    i64 6, label %53
    i64 5, label %61
    i64 4, label %69
    i64 3, label %77
    i64 2, label %85
    i64 1, label %93
  ]

45:                                               ; preds = %42
  %46 = load ptr, ptr %4, align 8, !tbaa !30
  %47 = getelementptr inbounds i8, ptr %46, i64 6
  %48 = load i8, ptr %47, align 1, !tbaa !29
  %49 = zext i8 %48 to i64
  %50 = shl i64 %49, 48
  %51 = load i64, ptr %9, align 8, !tbaa !25
  %52 = xor i64 %51, %50
  store i64 %52, ptr %9, align 8, !tbaa !25
  br label %53

53:                                               ; preds = %42, %45
  %54 = load ptr, ptr %4, align 8, !tbaa !30
  %55 = getelementptr inbounds i8, ptr %54, i64 5
  %56 = load i8, ptr %55, align 1, !tbaa !29
  %57 = zext i8 %56 to i64
  %58 = shl i64 %57, 40
  %59 = load i64, ptr %9, align 8, !tbaa !25
  %60 = xor i64 %59, %58
  store i64 %60, ptr %9, align 8, !tbaa !25
  br label %61

61:                                               ; preds = %42, %53
  %62 = load ptr, ptr %4, align 8, !tbaa !30
  %63 = getelementptr inbounds i8, ptr %62, i64 4
  %64 = load i8, ptr %63, align 1, !tbaa !29
  %65 = zext i8 %64 to i64
  %66 = shl i64 %65, 32
  %67 = load i64, ptr %9, align 8, !tbaa !25
  %68 = xor i64 %67, %66
  store i64 %68, ptr %9, align 8, !tbaa !25
  br label %69

69:                                               ; preds = %42, %61
  %70 = load ptr, ptr %4, align 8, !tbaa !30
  %71 = getelementptr inbounds i8, ptr %70, i64 3
  %72 = load i8, ptr %71, align 1, !tbaa !29
  %73 = zext i8 %72 to i64
  %74 = shl i64 %73, 24
  %75 = load i64, ptr %9, align 8, !tbaa !25
  %76 = xor i64 %75, %74
  store i64 %76, ptr %9, align 8, !tbaa !25
  br label %77

77:                                               ; preds = %42, %69
  %78 = load ptr, ptr %4, align 8, !tbaa !30
  %79 = getelementptr inbounds i8, ptr %78, i64 2
  %80 = load i8, ptr %79, align 1, !tbaa !29
  %81 = zext i8 %80 to i64
  %82 = shl i64 %81, 16
  %83 = load i64, ptr %9, align 8, !tbaa !25
  %84 = xor i64 %83, %82
  store i64 %84, ptr %9, align 8, !tbaa !25
  br label %85

85:                                               ; preds = %42, %77
  %86 = load ptr, ptr %4, align 8, !tbaa !30
  %87 = getelementptr inbounds i8, ptr %86, i64 1
  %88 = load i8, ptr %87, align 1, !tbaa !29
  %89 = zext i8 %88 to i64
  %90 = shl i64 %89, 8
  %91 = load i64, ptr %9, align 8, !tbaa !25
  %92 = xor i64 %91, %90
  store i64 %92, ptr %9, align 8, !tbaa !25
  br label %93

93:                                               ; preds = %42, %85
  %94 = load ptr, ptr %4, align 8, !tbaa !30
  %95 = getelementptr inbounds i8, ptr %94, i64 0
  %96 = load i8, ptr %95, align 1, !tbaa !29
  %97 = zext i8 %96 to i64
  %98 = load i64, ptr %9, align 8, !tbaa !25
  %99 = xor i64 %98, %97
  store i64 %99, ptr %9, align 8, !tbaa !25
  %100 = load i64, ptr %9, align 8, !tbaa !25
  %101 = mul i64 %100, -4132994306676758123
  store i64 %101, ptr %9, align 8, !tbaa !25
  br label %102

102:                                              ; preds = %93, %42
  %103 = load i64, ptr %9, align 8, !tbaa !25
  %104 = lshr i64 %103, 47
  %105 = load i64, ptr %9, align 8, !tbaa !25
  %106 = xor i64 %105, %104
  store i64 %106, ptr %9, align 8, !tbaa !25
  %107 = load i64, ptr %9, align 8, !tbaa !25
  %108 = mul i64 %107, -4132994306676758123
  store i64 %108, ptr %9, align 8, !tbaa !25
  %109 = load i64, ptr %9, align 8, !tbaa !25
  %110 = lshr i64 %109, 47
  %111 = load i64, ptr %9, align 8, !tbaa !25
  %112 = xor i64 %111, %110
  store i64 %112, ptr %9, align 8, !tbaa !25
  %113 = load i64, ptr %9, align 8, !tbaa !25
  call void @llvm.lifetime.end.p0(i64 8, ptr %10) #13
  call void @llvm.lifetime.end.p0(i64 8, ptr %9) #13
  call void @llvm.lifetime.end.p0(i64 4, ptr %8) #13
  call void @llvm.lifetime.end.p0(i64 8, ptr %7) #13
  ret i64 %113
}

; Function Attrs: mustprogress nounwind uwtable
define linkonce_odr dso_local noundef ptr @_ZNKSt6vectorIhSaIhEE11_M_data_ptrIhEEPT_S4_(ptr noundef nonnull align 8 dereferenceable(24) %0, ptr noundef %1) #3 comdat align 2 {
  %3 = alloca ptr, align 8
  %4 = alloca ptr, align 8
  store ptr %0, ptr %3, align 8, !tbaa !119
  store ptr %1, ptr %4, align 8, !tbaa !30
  %5 = load ptr, ptr %4, align 8, !tbaa !30
  ret ptr %5
}

; Function Attrs: mustprogress nounwind uwtable
define linkonce_odr dso_local void @_ZN4pstd4spanIKhEC2INS0_IhEEvS4_EERKT_(ptr noundef nonnull align 8 dereferenceable(16) %0, ptr noundef nonnull align 8 dereferenceable(16) %1) unnamed_addr #3 comdat align 2 personality ptr @__gxx_personality_v0 {
  %3 = alloca ptr, align 8
  %4 = alloca ptr, align 8
  store ptr %0, ptr %3, align 8, !tbaa !63
  store ptr %1, ptr %4, align 8, !tbaa !130
  %5 = load ptr, ptr %3, align 8
  %6 = load ptr, ptr %4, align 8, !tbaa !130
  %7 = invoke noundef ptr @_ZNK4pstd4spanIhE4dataEv(ptr noundef nonnull align 8 dereferenceable(16) %6)
          to label %8 unwind label %13

8:                                                ; preds = %2
  %9 = load ptr, ptr %4, align 8, !tbaa !130
  %10 = invoke noundef i64 @_ZNK4pstd4spanIhE4sizeEv(ptr noundef nonnull align 8 dereferenceable(16) %9)
          to label %11 unwind label %13

11:                                               ; preds = %8
  invoke void @_ZN4pstd4spanIKhEC2EPS1_m(ptr noundef nonnull align 8 dereferenceable(16) %5, ptr noundef %7, i64 noundef %10)
          to label %12 unwind label %13

12:                                               ; preds = %11
  ret void

13:                                               ; preds = %11, %8, %2
  %14 = landingpad { ptr, i32 }
          catch ptr null
  %15 = extractvalue { ptr, i32 } %14, 0
  call void @__clang_call_terminate(ptr %15) #22
  unreachable
}

; Function Attrs: inlinehint mustprogress nounwind uwtable
define linkonce_odr dso_local { ptr, i64 } @_ZN4pstd8MakeSpanITpTnRiJEhEENS_4spanIT0_EEPS3_m(ptr noundef %0, i64 noundef %1) #12 comdat personality ptr @__gxx_personality_v0 {
  %3 = alloca %"class.pstd::span.19", align 8
  %4 = alloca ptr, align 8
  %5 = alloca i64, align 8
  store ptr %0, ptr %4, align 8, !tbaa !30
  store i64 %1, ptr %5, align 8, !tbaa !25
  %6 = load ptr, ptr %4, align 8, !tbaa !30
  %7 = load i64, ptr %5, align 8, !tbaa !25
  invoke void @_ZN4pstd4spanIhEC2EPhm(ptr noundef nonnull align 8 dereferenceable(16) %3, ptr noundef %6, i64 noundef %7)
          to label %8 unwind label %10

8:                                                ; preds = %2
  %9 = load { ptr, i64 }, ptr %3, align 8
  ret { ptr, i64 } %9

10:                                               ; preds = %2
  %11 = landingpad { ptr, i32 }
          catch ptr null
  %12 = extractvalue { ptr, i32 } %11, 0
  call void @__clang_call_terminate(ptr %12) #22
  unreachable
}

; Function Attrs: mustprogress nounwind uwtable
define linkonce_odr dso_local noundef nonnull align 8 dereferenceable(8) ptr @_ZNSt6vectorImSaImEEixEm(ptr noundef nonnull align 8 dereferenceable(24) %0, i64 noundef %1) #3 comdat align 2 {
  %3 = alloca ptr, align 8
  %4 = alloca i64, align 8
  store ptr %0, ptr %3, align 8, !tbaa !121
  store i64 %1, ptr %4, align 8, !tbaa !25
  %5 = load ptr, ptr %3, align 8
  %6 = getelementptr inbounds nuw %"struct.std::_Vector_base.15", ptr %5, i32 0, i32 0
  %7 = getelementptr inbounds nuw %"struct.std::_Vector_base<unsigned long, std::allocator<unsigned long>>::_Vector_impl_data", ptr %6, i32 0, i32 0
  %8 = load ptr, ptr %7, align 8, !tbaa !126
  %9 = load i64, ptr %4, align 8, !tbaa !25
  %10 = getelementptr inbounds nuw i64, ptr %8, i64 %9
  ret ptr %10
}

; Function Attrs: inlinehint mustprogress uwtable
define linkonce_odr dso_local noundef i64 @_ZN4pbrt10HashBufferIhEEmPKT_mm(ptr noundef %0, i64 noundef %1, i64 noundef %2) #8 comdat {
  %4 = alloca ptr, align 8
  %5 = alloca i64, align 8
  %6 = alloca i64, align 8
  store ptr %0, ptr %4, align 8, !tbaa !30
  store i64 %1, ptr %5, align 8, !tbaa !25
  store i64 %2, ptr %6, align 8, !tbaa !25
  %7 = load ptr, ptr %4, align 8, !tbaa !30
  %8 = load i64, ptr %5, align 8, !tbaa !25
  %9 = load i64, ptr %6, align 8, !tbaa !25
  %10 = call noundef i64 @_ZN4pbrt13MurmurHash64AEPKhmm(ptr noundef %7, i64 noundef %8, i64 noundef %9)
  ret i64 %10
}

; Function Attrs: mustprogress nounwind uwtable
define linkonce_odr dso_local noundef ptr @_ZNSt6vectorIhSaIhEE4dataEv(ptr noundef nonnull align 8 dereferenceable(24) %0) #3 comdat align 2 {
  %2 = alloca ptr, align 8
  store ptr %0, ptr %2, align 8, !tbaa !119
  %3 = load ptr, ptr %2, align 8
  %4 = getelementptr inbounds nuw %"struct.std::_Vector_base.10", ptr %3, i32 0, i32 0
  %5 = getelementptr inbounds nuw %"struct.std::_Vector_base<unsigned char, std::allocator<unsigned char>>::_Vector_impl_data", ptr %4, i32 0, i32 0
  %6 = load ptr, ptr %5, align 8, !tbaa !123
  %7 = call noundef ptr @_ZNKSt6vectorIhSaIhEE11_M_data_ptrIhEEPT_S4_(ptr noundef nonnull align 8 dereferenceable(24) %3, ptr noundef %6) #13
  ret ptr %7
}

; Function Attrs: mustprogress uwtable
define dso_local noundef zeroext i1 @_ZN4pbrt11DisplayItem18ImageChannelBuffer13SendIfChangedERNS_10IPCChannelEi(ptr noundef nonnull align 8 dereferenceable(64) %0, ptr noundef nonnull align 8 dereferenceable(76) %1, i32 noundef %2) #1 align 2 {
  %4 = alloca i1, align 1
  %5 = alloca ptr, align 8
  %6 = alloca ptr, align 8
  %7 = alloca i32, align 4
  %8 = alloca i32, align 4
  %9 = alloca i64, align 8
  %10 = alloca i32, align 4
  %11 = alloca %"class.pstd::span", align 8
  %12 = alloca %"class.pstd::span.19", align 8
  store ptr %0, ptr %5, align 8, !tbaa !102
  store ptr %1, ptr %6, align 8, !tbaa !13
  store i32 %2, ptr %7, align 4, !tbaa !28
  %13 = load ptr, ptr %5, align 8
  call void @llvm.lifetime.start.p0(i64 4, ptr %8) #13
  %14 = getelementptr inbounds nuw %"struct.pbrt::DisplayItem::ImageChannelBuffer", ptr %13, i32 0, i32 4
  %15 = load i32, ptr %14, align 8, !tbaa !129
  %16 = sub nsw i32 %15, 16384
  store i32 %16, ptr %8, align 4, !tbaa !28
  %17 = load i32, ptr %8, align 4, !tbaa !28
  %18 = icmp sgt i32 %17, 0
  br i1 %18, label %19, label %34

19:                                               ; preds = %3
  %20 = getelementptr inbounds nuw %"struct.pbrt::DisplayItem::ImageChannelBuffer", ptr %13, i32 0, i32 0
  %21 = call noundef ptr @_ZNSt6vectorIhSaIhEE4dataEv(ptr noundef nonnull align 8 dereferenceable(24) %20) #13
  %22 = getelementptr inbounds nuw %"struct.pbrt::DisplayItem::ImageChannelBuffer", ptr %13, i32 0, i32 2
  %23 = load i32, ptr %22, align 4, !tbaa !118
  %24 = sext i32 %23 to i64
  %25 = getelementptr inbounds i8, ptr %21, i64 %24
  %26 = getelementptr inbounds nuw %"struct.pbrt::DisplayItem::ImageChannelBuffer", ptr %13, i32 0, i32 4
  %27 = load i32, ptr %26, align 8, !tbaa !129
  %28 = sext i32 %27 to i64
  %29 = mul i64 %28, 4
  %30 = getelementptr inbounds nuw i8, ptr %25, i64 %29
  %31 = load i32, ptr %8, align 4, !tbaa !28
  %32 = sext i32 %31 to i64
  %33 = mul i64 %32, 4
  call void @llvm.memset.p0.i64(ptr align 1 %30, i8 0, i64 %33, i1 false)
  br label %34

34:                                               ; preds = %19, %3
  call void @llvm.lifetime.start.p0(i64 8, ptr %9) #13
  %35 = getelementptr inbounds nuw %"struct.pbrt::DisplayItem::ImageChannelBuffer", ptr %13, i32 0, i32 0
  %36 = call noundef ptr @_ZNSt6vectorIhSaIhEE4dataEv(ptr noundef nonnull align 8 dereferenceable(24) %35) #13
  %37 = getelementptr inbounds nuw %"struct.pbrt::DisplayItem::ImageChannelBuffer", ptr %13, i32 0, i32 2
  %38 = load i32, ptr %37, align 4, !tbaa !118
  %39 = sext i32 %38 to i64
  %40 = getelementptr inbounds i8, ptr %36, i64 %39
  %41 = call noundef i64 @_ZN4pbrt10HashBufferIhEEmPKT_mm(ptr noundef %40, i64 noundef 65536, i64 noundef 0)
  store i64 %41, ptr %9, align 8, !tbaa !25
  %42 = load i64, ptr %9, align 8, !tbaa !25
  %43 = getelementptr inbounds nuw %"struct.pbrt::DisplayItem::ImageChannelBuffer", ptr %13, i32 0, i32 3
  %44 = load i32, ptr %7, align 4, !tbaa !28
  %45 = sext i32 %44 to i64
  %46 = call noundef nonnull align 8 dereferenceable(8) ptr @_ZNSt6vectorImSaImEEixEm(ptr noundef nonnull align 8 dereferenceable(24) %43, i64 noundef %45) #13
  %47 = load i64, ptr %46, align 8, !tbaa !25
  %48 = icmp eq i64 %42, %47
  br i1 %48, label %49, label %50

49:                                               ; preds = %34
  store i1 true, ptr %4, align 1
  store i32 1, ptr %10, align 4
  br label %80

50:                                               ; preds = %34
  %51 = load ptr, ptr %6, align 8, !tbaa !13
  call void @llvm.lifetime.start.p0(i64 16, ptr %12) #13
  %52 = getelementptr inbounds nuw %"struct.pbrt::DisplayItem::ImageChannelBuffer", ptr %13, i32 0, i32 0
  %53 = call noundef ptr @_ZNSt6vectorIhSaIhEE4dataEv(ptr noundef nonnull align 8 dereferenceable(24) %52) #13
  %54 = getelementptr inbounds nuw %"struct.pbrt::DisplayItem::ImageChannelBuffer", ptr %13, i32 0, i32 2
  %55 = load i32, ptr %54, align 4, !tbaa !118
  %56 = sext i32 %55 to i64
  %57 = getelementptr inbounds nuw %"struct.pbrt::DisplayItem::ImageChannelBuffer", ptr %13, i32 0, i32 4
  %58 = load i32, ptr %57, align 8, !tbaa !129
  %59 = sext i32 %58 to i64
  %60 = mul i64 %59, 4
  %61 = add i64 %56, %60
  %62 = call { ptr, i64 } @_ZN4pstd8MakeSpanITpTnRiJEhEENS_4spanIT0_EEPS3_m(ptr noundef %53, i64 noundef %61) #13
  %63 = getelementptr inbounds nuw { ptr, i64 }, ptr %12, i32 0, i32 0
  %64 = extractvalue { ptr, i64 } %62, 0
  store ptr %64, ptr %63, align 8
  %65 = getelementptr inbounds nuw { ptr, i64 }, ptr %12, i32 0, i32 1
  %66 = extractvalue { ptr, i64 } %62, 1
  store i64 %66, ptr %65, align 8
  call void @_ZN4pstd4spanIKhEC2INS0_IhEEvS4_EERKT_(ptr noundef nonnull align 8 dereferenceable(16) %11, ptr noundef nonnull align 8 dereferenceable(16) %12) #13
  %67 = getelementptr inbounds nuw { ptr, i64 }, ptr %11, i32 0, i32 0
  %68 = load ptr, ptr %67, align 8
  %69 = getelementptr inbounds nuw { ptr, i64 }, ptr %11, i32 0, i32 1
  %70 = load i64, ptr %69, align 8
  %71 = call noundef zeroext i1 @_ZN4pbrt10IPCChannel4SendEN4pstd4spanIKhEE(ptr noundef nonnull align 8 dereferenceable(76) %51, ptr %68, i64 %70)
  %72 = xor i1 %71, true
  call void @llvm.lifetime.end.p0(i64 16, ptr %12) #13
  br i1 %72, label %73, label %74

73:                                               ; preds = %50
  store i1 false, ptr %4, align 1
  store i32 1, ptr %10, align 4
  br label %80

74:                                               ; preds = %50
  %75 = load i64, ptr %9, align 8, !tbaa !25
  %76 = getelementptr inbounds nuw %"struct.pbrt::DisplayItem::ImageChannelBuffer", ptr %13, i32 0, i32 3
  %77 = load i32, ptr %7, align 4, !tbaa !28
  %78 = sext i32 %77 to i64
  %79 = call noundef nonnull align 8 dereferenceable(8) ptr @_ZNSt6vectorImSaImEEixEm(ptr noundef nonnull align 8 dereferenceable(24) %76, i64 noundef %78) #13
  store i64 %75, ptr %79, align 8, !tbaa !25
  store i1 true, ptr %4, align 1
  store i32 1, ptr %10, align 4
  br label %80

80:                                               ; preds = %74, %73, %49
  call void @llvm.lifetime.end.p0(i64 8, ptr %9) #13
  call void @llvm.lifetime.end.p0(i64 4, ptr %8) #13
  %81 = load i1, ptr %4, align 1
  ret i1 %81
}