; Function Attrs: mustprogress uwtable
define dso_local noundef zeroext i1 @_ZN4pbrt11DisplayItem18ImageChannelBuffer13SendIfChangedERNS_10IPCChannelEi(ptr noundef nonnull readonly align 8 captures(none) dereferenceable(64) %0, ptr noundef nonnull align 8 captures(none) dereferenceable(76) %1, i32 noundef %2) local_unnamed_addr #1 align 2 personality ptr @__gxx_personality_v0 {
  %4 = getelementptr inbounds nuw i8, ptr %0, i64 56
  %5 = load i32, ptr %4, align 8, !tbaa !114
  %6 = icmp sgt i32 %5, 16384
  br i1 %6, label %7, label %19

7:                                                ; preds = %3
  %8 = add nsw i32 %5, -16384
  %9 = load ptr, ptr %0, align 8, !tbaa !91
  %10 = getelementptr inbounds nuw i8, ptr %0, i64 28
  %11 = load i32, ptr %10, align 4, !tbaa !112
  %12 = sext i32 %11 to i64
  %13 = getelementptr inbounds i8, ptr %9, i64 %12
  %14 = zext nneg i32 %5 to i64
  %15 = shl nuw nsw i64 %14, 2
  %16 = getelementptr inbounds nuw i8, ptr %13, i64 %15
  %17 = zext nneg i32 %8 to i64
  %18 = shl nuw nsw i64 %17, 2
  tail call void @llvm.memset.p0.i64(ptr nonnull align 1 %16, i8 0, i64 %18, i1 false)
  br label %19

19:                                               ; preds = %7, %3
  %20 = load ptr, ptr %0, align 8, !tbaa !91
  %21 = getelementptr inbounds nuw i8, ptr %0, i64 28
  %22 = load i32, ptr %21, align 4, !tbaa !112
  %23 = sext i32 %22 to i64
  %24 = getelementptr inbounds i8, ptr %20, i64 %23
  br label %.lr.ph.i.i

.lr.ph.i.i:                                       ; preds = %.lr.ph.i.i, %19
  %.039.i.i.idx = phi i64 [ %.039.i.i.add, %.lr.ph.i.i ], [ 0, %19 ]
  %.03638.i.i = phi i64 [ %30, %.lr.ph.i.i ], [ -6371648090673971200, %19 ]
  %.039.i.i.ptr = getelementptr inbounds nuw i8, ptr %24, i64 %.039.i.i.idx
  %.0.copyload.i.i = load i64, ptr %.039.i.i.ptr, align 1
  %.039.i.i.add = add nuw nsw i64 %.039.i.i.idx, 8
  %25 = mul i64 %.0.copyload.i.i, -4132994306676758123
  %26 = lshr i64 %25, 47
  %27 = xor i64 %26, %25
  %28 = mul i64 %27, -4132994306676758123
  %29 = xor i64 %28, %.03638.i.i
  %30 = mul i64 %29, -4132994306676758123
  %.not.i.i = icmp eq i64 %.039.i.i.add, 65536
  br i1 %.not.i.i, label %_ZN4pbrt10HashBufferIhEEmPKT_mm.exit, label %.lr.ph.i.i, !llvm.loop !113

_ZN4pbrt10HashBufferIhEEmPKT_mm.exit:             ; preds = %.lr.ph.i.i
  %31 = lshr i64 %30, 47
  %32 = xor i64 %31, %30
  %33 = mul i64 %32, -4132994306676758123
  %34 = lshr i64 %33, 47
  %35 = xor i64 %34, %33
  %36 = getelementptr inbounds nuw i8, ptr %0, i64 32
  %37 = sext i32 %2 to i64
  %38 = load ptr, ptr %36, align 8, !tbaa !95
  %39 = getelementptr inbounds nuw i64, ptr %38, i64 %37
  %40 = load i64, ptr %39, align 8, !tbaa !19
  %41 = icmp eq i64 %35, %40
  br i1 %41, label %51, label %42

42:                                               ; preds = %_ZN4pbrt10HashBufferIhEEmPKT_mm.exit
  %43 = load i32, ptr %4, align 8, !tbaa !114
  %44 = sext i32 %43 to i64
  %45 = shl nsw i64 %44, 2
  %46 = add nsw i64 %45, %23
  %47 = tail call noundef zeroext i1 @_ZN4pbrt10IPCChannel4SendEN4pstd4spanIKhEE(ptr noundef nonnull align 8 dereferenceable(76) %1, ptr nonnull %20, i64 %46)
  br i1 %47, label %48, label %51

48:                                               ; preds = %42
  %49 = load ptr, ptr %36, align 8, !tbaa !95
  %50 = getelementptr inbounds nuw i64, ptr %49, i64 %37
  store i64 %35, ptr %50, align 8, !tbaa !19
  br label %51

51:                                               ; preds = %42, %_ZN4pbrt10HashBufferIhEEmPKT_mm.exit, %48
  %.0 = phi i1 [ true, %48 ], [ true, %_ZN4pbrt10HashBufferIhEEmPKT_mm.exit ], [ false, %42 ]
  ret i1 %.0
}